Certificate:
    Data:
        Version: 3 (0x2)
        Serial Number: 1 (0x1)
    Signature Algorithm: sha256WithRSAEncryption
        Issuer: C=CN, ST=GD, L=GZ, O=E, OU=EIS, CN=MAN/emailAddress=email
        Validity
            Not Before: Oct 25 05:45:33 2020 GMT
            Not After : Oct 25 05:45:33 2021 GMT
        Subject: C=CN, ST=GD, O=E, OU=EIS, CN=MAN/emailAddress=email
        Subject Public Key Info:
            Public Key Algorithm: rsaEncryption
                Public-Key: (2048 bit)
                Modulus:
                    00:be:d8:b8:ba:89:ec:b3:a4:8c:18:30:2f:f4:29:
                    14:69:58:39:e7:ac:1e:45:51:53:9a:82:91:07:1c:
                    96:d6:43:0c:2b:d0:2f:88:14:31:00:9c:24:9b:77:
                    7d:b8:5c:e4:0a:93:da:c6:56:ed:06:94:d1:dc:30:
                    48:1f:1d:7c:6c:9a:3f:4e:34:3f:3f:13:5c:23:ea:
                    3c:ca:e0:62:07:80:f6:44:34:5b:6a:00:e2:97:3b:
                    00:0a:fe:b4:65:13:97:c3:c7:74:68:b5:e4:ae:b9:
                    cd:7e:c1:5d:da:00:a8:29:bd:f9:03:0b:68:1b:03:
                    96:5c:21:0d:b7:92:05:b1:f7:36:c5:ba:60:f2:dd:
                    d4:9e:5a:e2:72:be:b0:8d:ef:d3:bf:ff:1f:a8:4a:
                    19:77:f6:5c:82:db:48:42:d5:e5:55:6c:e4:fc:e4:
                    9a:93:30:12:ae:19:08:96:0d:8a:24:7d:9b:cc:f0:
                    ef:05:af:4f:2d:0e:69:5f:90:49:28:b8:1a:ae:3a:
                    b3:12:92:ba:8e:15:64:7d:d3:c6:d3:f2:17:f2:71:
                    32:ba:e4:6b:2a:fb:e4:8c:7b:2d:e7:6f:9c:b5:ef:
                    8e:0e:76:da:fb:66:2c:da:8b:b2:68:1c:e2:45:db:
                    08:44:72:da:83:fa:ac:da:13:f2:fd:17:c5:e2:c0:
                    c7:c3
                Exponent: 65537 (0x10001)
        X509v3 extensions:
            X509v3 Basic Constraints: 
                CA:FALSE
            Netscape Comment: 
                OpenSSL Generated Certificate
            X509v3 Subject Key Identifier: 
                62:33:05:D4:CF:78:C5:C4:F2:49:68:8F:1D:C7:2C:6A:21:DC:E3:68
            X509v3 Authority Key Identifier: 
                keyid:9B:5D:7E:3F:59:6C:3E:6E:5C:25:4A:2C:6E:EB:70:DB:C9:3B:F9:C1

    Signature Algorithm: sha256WithRSAEncryption
         14:56:4f:2a:b0:0d:9e:7d:66:b9:85:a5:4c:0b:b3:47:fc:68:
         88:b9:ed:fb:1a:7f:27:51:10:8e:a0:b4:b9:35:51:ad:fb:c3:
         a8:39:d7:7d:d0:c3:9e:0b:66:4a:3c:cf:97:34:47:94:65:c5:
         c3:65:3c:aa:c5:1e:ca:39:b3:c2:9b:6b:d9:68:80:fb:08:bc:
         0a:0c:71:31:64:58:5c:21:c5:57:25:d6:fa:a4:60:64:d4:ea:
         3a:8f:46:1d:4f:fa:4a:26:50:ff:9c:6d:e2:57:eb:c1:e5:e9:
         90:07:53:6c:32:03:22:e3:ac:60:9e:02:11:d1:34:8b:75:29:
         35:89:01:d3:b8:de:49:78:9d:6c:e9:79:ca:6c:8e:31:8f:2f:
         4a:97:42:fe:b9:de:dc:19:41:30:3d:0a:0e:6d:45:b5:c8:82:
         3e:3d:15:a9:a7:21:25:52:c4:0d:a1:5e:be:b5:a6:c2:a5:eb:
         80:fe:31:1d:f0:fc:91:de:21:df:23:f9:ac:31:83:82:98:5a:
         ec:ba:78:1c:2f:83:82:3e:49:3d:8f:34:08:fe:ba:bd:64:3b:
         b6:18:5d:9c:ed:eb:12:d4:74:6c:ea:98:8f:0c:73:92:f9:89:
         a2:7a:27:cc:be:0c:47:54:94:10:d2:e3:02:96:d5:52:3b:32:
         66:fb:d0:53
-----BEGIN CERTIFICATE-----
MIIDszCCApugAwIBAgIBATANBgkqhkiG9w0BAQsFADBlMQswCQYDVQQGEwJDTjEL
MAkGA1UECAwCR0QxCzAJBgNVBAcMAkdaMQowCAYDVQQKDAFFMQwwCgYDVQQLDANF
SVMxDDAKBgNVBAMMA01BTjEUMBIGCSqGSIb3DQEJARYFZW1haWwwHhcNMjAxMDI1
MDU0NTMzWhcNMjExMDI1MDU0NTMzWjBYMQswCQYDVQQGEwJDTjELMAkGA1UECAwC
R0QxCjAIBgNVBAoMAUUxDDAKBgNVBAsMA0VJUzEMMAoGA1UEAwwDTUFOMRQwEgYJ
KoZIhvcNAQkBFgVlbWFpbDCCASIwDQYJKoZIhvcNAQEBBQADggEPADCCAQoCggEB
AL7YuLqJ7LOkjBgwL/QpFGlYOeesHkVRU5qCkQccltZDDCvQL4gUMQCcJJt3fbhc
5AqT2sZW7QaU0dwwSB8dfGyaP040Pz8TXCPqPMrgYgeA9kQ0W2oA4pc7AAr+tGUT
l8PHdGi15K65zX7BXdoAqCm9+QMLaBsDllwhDbeSBbH3NsW6YPLd1J5a4nK+sI3v
07//H6hKGXf2XILbSELV5VVs5PzkmpMwEq4ZCJYNiiR9m8zw7wWvTy0OaV+QSSi4
Gq46sxKSuo4VZH3TxtPyF/JxMrrkayr75Ix7LedvnLXvjg522vtmLNqLsmgc4kXb
CERy2oP6rNoT8v0XxeLAx8MCAwEAAaN7MHkwCQYDVR0TBAIwADAsBglghkgBhvhC
AQ0EHxYdT3BlblNTTCBHZW5lcmF0ZWQgQ2VydGlmaWNhdGUwHQYDVR0OBBYEFGIz
BdTPeMXE8klojx3HLGoh3ONoMB8GA1UdIwQYMBaAFJtdfj9ZbD5uXCVKLG7rcNvJ
O/nBMA0GCSqGSIb3DQEBCwUAA4IBAQAUVk8qsA2efWa5haVMC7NH/GiIue37Gn8n
URCOoLS5NVGt+8OoOdd90MOeC2ZKPM+XNEeUZcXDZTyqxR7KObPCm2vZaID7CLwK
DHExZFhcIcVXJdb6pGBk1Oo6j0YdT/pKJlD/nG3iV+vB5emQB1NsMgMi46xgngIR
0TSLdSk1iQHTuN5JeJ1s6XnKbI4xjy9Kl0L+ud7cGUEwPQoObUW1yII+PRWppyEl
UsQNoV6+tabCpeuA/jEd8PyR3iHfI/msMYOCmFrsungcL4OCPkk9jzQI/rq9ZDu2
GF2c7esS1HRs6piPDHOS+YmieifMvgxHVJQQ0uMCltVSOzJm+9BT
-----END CERTIFICATE-----
