Certificate:
    Data:
        Version: 3 (0x2)
        Serial Number: 1 (0x1)
        Signature Algorithm: sha256WithRSAEncryption
        Issuer: C=CN, ST=GuangDong, L=GuangZhou, O=zhuzaiyuan, OU=zhuzaiyuan, CN=WIFI/emailAddress=1000@gmail.com
        Validity
            Not Before: Jan 29 03:40:54 2024 GMT
            Not After : Jan 26 03:40:54 2034 GMT
        Subject: C=CN, ST=GuangDong, O=zhuzaiyuan, OU=zhuzaiyuan, CN=WIFI/emailAddress=1000@gmail.com
        Subject Public Key Info:
            Public Key Algorithm: rsaEncryption
                Public-Key: (2048 bit)
                Modulus:
                    00:ad:bd:1b:6b:f3:ae:3d:20:9d:af:58:72:20:62:
                    cc:b5:e3:9e:1c:9e:5a:21:86:6b:06:93:7d:ce:6d:
                    93:fc:07:8f:5a:88:51:7d:0b:56:b1:03:b0:6d:94:
                    e4:08:61:09:f8:dd:a6:18:1a:c4:6d:f7:2f:3d:31:
                    00:23:9a:3b:6b:29:37:a8:a2:f3:7b:ff:ce:9c:04:
                    9e:67:21:77:81:cf:ae:87:de:e0:3d:4d:d1:46:ea:
                    fa:a2:08:51:eb:0a:c3:66:d8:a0:2c:39:f3:a5:0f:
                    a6:b3:89:f3:b3:17:18:2f:6c:d0:a8:0e:3c:02:3b:
                    4c:f7:6c:c3:09:80:67:0e:ef:53:12:da:49:76:9a:
                    89:96:d5:01:7e:b8:75:1e:80:d7:0a:0f:c8:b3:d9:
                    58:9b:cc:87:b5:b5:c7:22:f5:5b:0e:d6:09:aa:3b:
                    5f:61:ed:4f:26:2e:78:8f:2e:78:c4:86:db:d4:af:
                    3b:3a:bd:fd:f0:c2:2e:b7:a5:44:4b:2a:93:65:d9:
                    dd:04:9d:54:d5:ef:cd:3c:33:d2:84:c5:f4:ea:c0:
                    06:0a:c0:ed:b9:9d:5a:73:52:fa:b0:b8:dc:20:b5:
                    5b:8c:00:29:ca:fe:50:d0:f2:49:4f:b6:6e:f2:04:
                    23:b0:bc:f9:f6:b7:17:90:3e:76:a6:c7:d7:3c:83:
                    5c:71
                Exponent: 65537 (0x10001)
        X509v3 extensions:
            X509v3 Basic Constraints: 
                CA:FALSE
            X509v3 Subject Key Identifier: 
                8E:38:1C:FC:83:51:B3:EB:E4:7B:D5:3F:A9:CB:7A:DD:BF:C6:09:6E
            X509v3 Authority Key Identifier: 
                ED:EE:B4:C1:E6:B0:2A:27:49:47:3D:F5:30:79:76:26:90:82:AB:86
    Signature Algorithm: sha256WithRSAEncryption
    Signature Value:
        08:0d:e1:91:1e:0e:a5:90:d7:f6:32:62:d9:85:24:26:b2:c4:
        9a:8d:89:0f:75:78:cc:48:f7:a3:3c:77:e4:cf:cf:6e:51:91:
        5f:72:ea:65:22:5b:24:e2:fa:bb:52:a1:77:c6:33:8f:9e:37:
        75:08:65:53:c7:77:cf:b4:38:e7:a0:21:2e:ea:c2:5a:f9:22:
        92:5b:1e:21:dd:ab:dc:ad:55:2a:0a:e2:53:ab:be:91:d4:54:
        38:8e:73:21:9b:29:a2:ed:25:fe:4a:62:68:b5:9c:d5:db:e1:
        5a:db:a2:4d:bb:e7:b3:fa:ae:1e:a6:08:2e:d7:9e:a5:82:e1:
        19:c6:1f:59:f1:d8:19:48:fd:de:d9:24:a2:0b:47:c4:17:a8:
        dd:43:da:5f:7c:61:35:24:36:a6:19:b6:f0:6f:fc:a7:74:7a:
        05:81:0f:14:46:7a:06:1b:ed:5b:aa:81:e1:88:71:ab:12:ba:
        e5:f7:c7:5e:ac:88:96:c5:9b:0d:b0:da:91:a5:64:9a:f8:b5:
        3e:18:81:f4:f8:a3:9d:03:43:a5:97:4d:76:11:43:fc:b8:65:
        89:ce:75:09:56:8c:bd:ec:a6:91:a6:b9:4f:eb:27:73:7f:0d:
        da:09:a7:dd:35:10:2a:57:9d:de:b5:56:5d:77:d1:fd:00:38:
        97:91:ba:d3
-----BEGIN CERTIFICATE-----
MIIDzzCCAregAwIBAgIBATANBgkqhkiG9w0BAQsFADCBjTELMAkGA1UEBhMCQ04x
EjAQBgNVBAgMCUd1YW5nRG9uZzESMBAGA1UEBwwJR3VhbmdaaG91MRMwEQYDVQQK
DAp6aHV6YWl5dWFuMRMwEQYDVQQLDAp6aHV6YWl5dWFuMQ0wCwYDVQQDDARXSUZJ
MR0wGwYJKoZIhvcNAQkBFg4xMDAwQGdtYWlsLmNvbTAeFw0yNDAxMjkwMzQwNTRa
Fw0zNDAxMjYwMzQwNTRaMHkxCzAJBgNVBAYTAkNOMRIwEAYDVQQIDAlHdWFuZ0Rv
bmcxEzARBgNVBAoMCnpodXphaXl1YW4xEzARBgNVBAsMCnpodXphaXl1YW4xDTAL
BgNVBAMMBFdJRkkxHTAbBgkqhkiG9w0BCQEWDjEwMDBAZ21haWwuY29tMIIBIjAN
BgkqhkiG9w0BAQEFAAOCAQ8AMIIBCgKCAQEArb0ba/OuPSCdr1hyIGLMteOeHJ5a
IYZrBpN9zm2T/AePWohRfQtWsQOwbZTkCGEJ+N2mGBrEbfcvPTEAI5o7ayk3qKLz
e//OnASeZyF3gc+uh97gPU3RRur6oghR6wrDZtigLDnzpQ+ms4nzsxcYL2zQqA48
AjtM92zDCYBnDu9TEtpJdpqJltUBfrh1HoDXCg/Is9lYm8yHtbXHIvVbDtYJqjtf
Ye1PJi54jy54xIbb1K87Or398MIut6VESyqTZdndBJ1U1e/NPDPShMX06sAGCsDt
uZ1ac1L6sLjcILVbjAApyv5Q0PJJT7Zu8gQjsLz59rcXkD52psfXPINccQIDAQAB
o00wSzAJBgNVHRMEAjAAMB0GA1UdDgQWBBSOOBz8g1Gz6+R71T+py3rdv8YJbjAf
BgNVHSMEGDAWgBTt7rTB5rAqJ0lHPfUweXYmkIKrhjANBgkqhkiG9w0BAQsFAAOC
AQEACA3hkR4OpZDX9jJi2YUkJrLEmo2JD3V4zEj3ozx35M/PblGRX3LqZSJbJOL6
u1Khd8Yzj543dQhlU8d3z7Q456AhLurCWvkiklseId2r3K1VKgriU6u+kdRUOI5z
IZspou0l/kpiaLWc1dvhWtuiTbvns/quHqYILteepYLhGcYfWfHYGUj93tkkogtH
xBeo3UPaX3xhNSQ2phm28G/8p3R6BYEPFEZ6BhvtW6qB4YhxqxK65ffHXqyIlsWb
DbDakaVkmvi1PhiB9PijnQNDpZdNdhFD/Lhlic51CVaMveymkaa5T+snc38N2gmn
3TUQKled3rVWXXfR/QA4l5G60w==
-----END CERTIFICATE-----
