Certificate:
    Data:
        Version: 3 (0x2)
        Serial Number: 1 (0x1)
    Signature Algorithm: sha256WithRSAEncryption
        Issuer: C=CN, ST=GuangDong, L=GuangZhou, O=zhuzaiyuan, OU=zhuzaiyuan, CN=WIFI/emailAddress=10000@gmail.com
        Validity
            Not Before: Jan  2 16:21:44 2026 GMT
            Not After : Dec  9 16:21:44 2125 GMT
        Subject: C=CN, ST=GuangDong, O=zhuzaiyuan, OU=zhuzaiyuan, CN=WIFI/emailAddress=10000@gmail.com
        Subject Public Key Info:
            Public Key Algorithm: rsaEncryption
                RSA Public-Key: (2048 bit)
                Modulus:
                    00:d1:45:61:60:c9:e3:7f:c6:8d:cf:40:9e:d7:18:
                    67:ba:65:13:23:c6:04:dd:63:d7:98:e4:4d:5e:32:
                    6c:2b:ff:f5:73:60:fe:25:8a:bf:f3:b4:d2:72:cd:
                    20:cd:44:52:ad:da:dc:7a:c3:5f:8c:36:df:6e:aa:
                    fc:0d:fe:0f:c5:fa:49:ca:26:94:a2:6b:38:cb:be:
                    32:f7:34:03:81:08:de:57:48:d7:6f:c8:0b:ff:88:
                    78:02:fb:98:47:0d:d5:ea:6c:6b:72:bc:d3:26:f4:
                    78:ff:2d:eb:86:69:af:ef:b9:47:fe:82:3a:7a:62:
                    87:44:3a:04:40:a1:68:db:43:bc:a4:1c:bb:76:b6:
                    3a:9f:52:55:ff:b2:4b:e4:a4:bc:43:d1:1c:3d:92:
                    d2:ee:c4:80:4a:72:e3:53:d2:53:e9:a9:9e:3a:74:
                    6f:40:75:dd:6b:10:90:1f:ba:4e:3c:74:a1:30:45:
                    d8:48:87:2e:88:ec:fd:50:42:8d:3b:d0:a2:5a:25:
                    43:02:54:16:ab:c8:3b:71:f0:ed:f0:0f:da:88:db:
                    e0:fc:79:ab:ae:c9:4d:41:e8:83:46:98:07:da:d5:
                    61:78:af:10:89:70:42:ad:08:e2:fc:a8:9e:76:05:
                    11:93:ae:fc:8a:84:7e:99:52:44:2f:25:7d:ee:84:
                    2f:df
                Exponent: 65537 (0x10001)
        X509v3 extensions:
            X509v3 Basic Constraints: 
                CA:FALSE
            Netscape Comment: 
                OpenSSL Generated Certificate
            X509v3 Subject Key Identifier: 
                78:9B:CD:9F:76:7A:BA:79:44:81:D6:C4:67:9E:DF:FD:40:E1:83:FD
            X509v3 Authority Key Identifier: 
                keyid:84:95:47:AC:AC:A7:B3:52:A7:FD:93:B5:74:B2:09:DD:6A:8E:92:98

    Signature Algorithm: sha256WithRSAEncryption
         6d:b5:19:5b:c4:b2:5b:ea:92:d5:d6:67:b8:a3:ba:03:fc:57:
         69:a2:8c:a7:52:fc:17:67:c2:25:9c:05:c7:56:fc:fc:60:aa:
         eb:8b:da:d8:6d:b9:ca:65:6b:4c:b6:47:cc:57:39:63:30:36:
         da:3e:1a:99:1c:9d:02:9c:9e:8e:bf:84:1c:e4:b7:ee:ed:a2:
         57:b7:e3:3d:bf:fc:d9:b9:d9:4d:d2:a9:d9:57:a8:51:81:2e:
         ae:cd:c0:39:ef:dd:1a:a1:ca:61:9b:ee:ac:b5:cb:0e:ca:fe:
         4f:1b:22:e9:93:1c:7f:d5:1d:2f:d8:a4:f6:41:44:75:2b:6b:
         aa:8d:b0:17:c4:1b:7d:00:92:51:a5:17:0b:06:47:30:c0:e9:
         6f:d8:e9:c3:9e:ea:15:50:f9:53:b2:f5:78:b0:9f:da:f2:5f:
         4b:b3:0b:42:59:db:65:ed:61:9a:25:86:a8:6c:80:d9:ca:00:
         30:61:67:ae:ef:38:24:b8:0a:82:88:86:9d:6a:98:b2:a7:da:
         0c:75:f9:81:74:6c:74:f4:c1:5d:46:78:80:b4:75:15:ff:4d:
         5c:87:e7:5e:c0:12:42:2c:16:62:fb:4b:01:9c:f0:04:7f:d3:
         4f:83:24:f7:df:68:9c:b1:d0:50:da:98:7c:3f:52:3a:8b:e4:
         dd:66:96:a5
-----BEGIN CERTIFICATE-----
MIIEATCCAumgAwIBAgIBATANBgkqhkiG9w0BAQsFADCBjjELMAkGA1UEBhMCQ04x
EjAQBgNVBAgMCUd1YW5nRG9uZzESMBAGA1UEBwwJR3VhbmdaaG91MRMwEQYDVQQK
DAp6aHV6YWl5dWFuMRMwEQYDVQQLDAp6aHV6YWl5dWFuMQ0wCwYDVQQDDARXSUZJ
MR4wHAYJKoZIhvcNAQkBFg8xMDAwMEBnbWFpbC5jb20wIBcNMjYwMTAyMTYyMTQ0
WhgPMjEyNTEyMDkxNjIxNDRaMHoxCzAJBgNVBAYTAkNOMRIwEAYDVQQIDAlHdWFu
Z0RvbmcxEzARBgNVBAoMCnpodXphaXl1YW4xEzARBgNVBAsMCnpodXphaXl1YW4x
DTALBgNVBAMMBFdJRkkxHjAcBgkqhkiG9w0BCQEWDzEwMDAwQGdtYWlsLmNvbTCC
ASIwDQYJKoZIhvcNAQEBBQADggEPADCCAQoCggEBANFFYWDJ43/Gjc9AntcYZ7pl
EyPGBN1j15jkTV4ybCv/9XNg/iWKv/O00nLNIM1EUq3a3HrDX4w2326q/A3+D8X6
ScomlKJrOMu+Mvc0A4EI3ldI12/IC/+IeAL7mEcN1epsa3K80yb0eP8t64Zpr++5
R/6COnpih0Q6BEChaNtDvKQcu3a2Op9SVf+yS+SkvEPRHD2S0u7EgEpy41PSU+mp
njp0b0B13WsQkB+6Tjx0oTBF2EiHLojs/VBCjTvQololQwJUFqvIO3Hw7fAP2ojb
4Px5q67JTUHog0aYB9rVYXivEIlwQq0I4vyonnYFEZOu/IqEfplSRC8lfe6EL98C
AwEAAaN7MHkwCQYDVR0TBAIwADAsBglghkgBhvhCAQ0EHxYdT3BlblNTTCBHZW5l
cmF0ZWQgQ2VydGlmaWNhdGUwHQYDVR0OBBYEFHibzZ92erp5RIHWxGee3/1A4YP9
MB8GA1UdIwQYMBaAFISVR6ysp7NSp/2TtXSyCd1qjpKYMA0GCSqGSIb3DQEBCwUA
A4IBAQBttRlbxLJb6pLV1me4o7oD/FdpooynUvwXZ8IlnAXHVvz8YKrri9rYbbnK
ZWtMtkfMVzljMDbaPhqZHJ0CnJ6Ov4Qc5Lfu7aJXt+M9v/zZudlN0qnZV6hRgS6u
zcA5790aocphm+6stcsOyv5PGyLpkxx/1R0v2KT2QUR1K2uqjbAXxBt9AJJRpRcL
BkcwwOlv2OnDnuoVUPlTsvV4sJ/a8l9LswtCWdtl7WGaJYaobIDZygAwYWeu7zgk
uAqCiIadapiyp9oMdfmBdGx09MFdRniAtHUV/01ch+dewBJCLBZi+0sBnPAEf9NP
gyT332icsdBQ2ph8P1I6i+TdZpal
-----END CERTIFICATE-----
