Certificate:
    Data:
        Version: 3 (0x2)
        Serial Number: 153 (0x99)
    Signature Algorithm: sha1WithRSAEncryption
        Issuer: C=CN, ST=GuangDong, L=GuangZhou, O=zhuzaiyuan, OU=zhuzaiyuan, CN=WIFI/emailAddress=298077831@qq.com
        Validity
            Not Before: Jan 22 17:33:31 2021 GMT
            Not After : Jan 22 17:33:31 2022 GMT
        Subject: C=CN, ST=GuangDong, O=zhuzaiyuan, OU=zhuzaiyuan, CN=WIFI/emailAddress=298077831@qq.com
        Subject Public Key Info:
            Public Key Algorithm: rsaEncryption
                Public-Key: (2048 bit)
                Modulus:
                    00:ba:fc:af:c4:b5:c6:e4:45:5e:8f:93:4f:e9:83:
                    04:46:73:f9:1a:e5:c2:38:72:90:3c:36:1f:10:d4:
                    b7:68:cf:57:55:92:fd:9c:64:d1:db:83:8a:bf:6d:
                    6a:e0:6e:80:f1:f4:a4:3e:d6:76:f9:69:5d:f5:df:
                    39:4b:1a:84:85:1d:fc:2e:fa:c1:0d:2d:0f:23:bc:
                    ef:21:15:b0:ae:2d:51:a2:f9:7c:c1:c6:41:cc:7a:
                    e8:1b:10:8c:72:df:29:2d:c6:8d:78:0b:df:52:be:
                    f1:81:2d:72:ae:01:11:f3:a4:f2:36:75:b9:64:73:
                    d2:d2:2a:ca:01:82:21:ec:92:38:29:e6:9b:72:46:
                    3c:0e:5a:79:49:7e:de:34:23:ee:b9:58:dd:41:08:
                    c8:14:ac:82:0f:56:e0:29:1a:f9:79:77:f5:fc:80:
                    f3:ff:6e:44:40:93:a2:74:65:b8:dc:51:9d:b9:18:
                    5f:a2:0c:47:d5:b0:b6:89:a7:77:35:db:33:5e:a8:
                    dc:24:79:f6:44:5b:73:f3:5d:b5:ce:70:d8:be:ca:
                    3d:da:eb:ef:05:31:f4:82:b2:64:ab:89:3e:66:27:
                    14:9f:2a:85:52:f3:82:77:a7:70:d4:2a:c0:ae:22:
                    d8:57:4c:8a:0e:86:19:68:47:5a:82:ef:17:8b:19:
                    d5:89
                Exponent: 65537 (0x10001)
        X509v3 extensions:
            X509v3 Basic Constraints: 
                CA:FALSE
            Netscape Comment: 
                OpenSSL Generated Certificate
            X509v3 Subject Key Identifier: 
                6D:E0:30:48:20:BF:2D:2A:42:17:CA:7E:5E:12:19:E7:ED:EA:DA:02
            X509v3 Authority Key Identifier: 
                keyid:A9:C8:C8:5D:96:A8:4E:A7:DE:50:3B:66:67:02:4D:BB:C4:0F:F8:27

    Signature Algorithm: sha1WithRSAEncryption
         95:c6:76:45:0b:0c:75:51:64:8e:90:05:65:55:c1:79:f9:19:
         59:89:83:0f:a5:40:14:25:04:83:ab:f2:3d:2e:b2:1f:2b:82:
         35:a7:d7:18:1b:43:61:33:e5:27:2e:b1:83:66:4f:80:5e:58:
         21:7d:23:a3:52:11:bd:19:c2:a7:93:ce:ca:5e:81:64:5f:1e:
         2c:5d:54:ac:a6:90:be:bb:6c:0e:4f:c7:1c:c9:ef:c9:b7:30:
         78:e1:fd:e7:37:a0:02:7f:c4:d0:62:75:78:c4:6a:7c:b0:7f:
         21:68:bb:69:ab:b4:7c:ca:67:60:c6:46:a2:e7:59:81:e6:fd:
         f4:3e:3f:85:8a:4e:0e:71:7e:02:67:77:16:7b:e7:7e:dd:10:
         25:95:6c:4f:60:32:d4:e3:6a:06:60:21:77:a2:91:1d:a3:8a:
         c7:e6:c7:48:2b:7a:1e:74:fc:f9:aa:b2:ba:c6:d4:c2:d0:e1:
         2e:0d:34:82:59:df:91:0f:2c:66:10:4d:07:34:ad:d1:fc:dd:
         99:4a:c1:c8:12:cf:20:3c:5b:b8:fd:8f:b4:99:79:77:8d:d7:
         25:63:58:66:3b:d4:e7:85:d7:f4:29:a3:c1:07:b8:64:f4:98:
         0f:09:f3:61:7a:19:9b:7a:9d:a0:d8:93:1a:29:f5:20:66:a5:
         fd:b9:44:6b
-----BEGIN CERTIFICATE-----
MIIEAjCCAuqgAwIBAgICAJkwDQYJKoZIhvcNAQEFBQAwgY8xCzAJBgNVBAYTAkNO
MRIwEAYDVQQIDAlHdWFuZ0RvbmcxEjAQBgNVBAcMCUd1YW5nWmhvdTETMBEGA1UE
CgwKemh1emFpeXVhbjETMBEGA1UECwwKemh1emFpeXVhbjENMAsGA1UEAwwEV0lG
STEfMB0GCSqGSIb3DQEJARYQMjk4MDc3ODMxQHFxLmNvbTAeFw0yMTAxMjIxNzMz
MzFaFw0yMjAxMjIxNzMzMzFaMHsxCzAJBgNVBAYTAkNOMRIwEAYDVQQIDAlHdWFu
Z0RvbmcxEzARBgNVBAoMCnpodXphaXl1YW4xEzARBgNVBAsMCnpodXphaXl1YW4x
DTALBgNVBAMMBFdJRkkxHzAdBgkqhkiG9w0BCQEWEDI5ODA3NzgzMUBxcS5jb20w
ggEiMA0GCSqGSIb3DQEBAQUAA4IBDwAwggEKAoIBAQC6/K/EtcbkRV6Pk0/pgwRG
c/ka5cI4cpA8Nh8Q1Ldoz1dVkv2cZNHbg4q/bWrgboDx9KQ+1nb5aV313zlLGoSF
Hfwu+sENLQ8jvO8hFbCuLVGi+XzBxkHMeugbEIxy3yktxo14C99SvvGBLXKuARHz
pPI2dblkc9LSKsoBgiHskjgp5ptyRjwOWnlJft40I+65WN1BCMgUrIIPVuApGvl5
d/X8gPP/bkRAk6J0ZbjcUZ25GF+iDEfVsLaJp3c12zNeqNwkefZEW3PzXbXOcNi+
yj3a6+8FMfSCsmSriT5mJxSfKoVS84J3p3DUKsCuIthXTIoOhhloR1qC7xeLGdWJ
AgMBAAGjezB5MAkGA1UdEwQCMAAwLAYJYIZIAYb4QgENBB8WHU9wZW5TU0wgR2Vu
ZXJhdGVkIENlcnRpZmljYXRlMB0GA1UdDgQWBBRt4DBIIL8tKkIXyn5eEhnn7era
AjAfBgNVHSMEGDAWgBSpyMhdlqhOp95QO2ZnAk27xA/4JzANBgkqhkiG9w0BAQUF
AAOCAQEAlcZ2RQsMdVFkjpAFZVXBefkZWYmDD6VAFCUEg6vyPS6yHyuCNafXGBtD
YTPlJy6xg2ZPgF5YIX0jo1IRvRnCp5POyl6BZF8eLF1UrKaQvrtsDk/HHMnvybcw
eOH95zegAn/E0GJ1eMRqfLB/IWi7aau0fMpnYMZGoudZgeb99D4/hYpODnF+Amd3
Fnvnft0QJZVsT2Ay1ONqBmAhd6KRHaOKx+bHSCt6HnT8+aqyusbUwtDhLg00glnf
kQ8sZhBNBzSt0fzdmUrByBLPIDxbuP2PtJl5d43XJWNYZjvU54XX9CmjwQe4ZPSY
DwnzYXoZm3qdoNiTGin1IGal/blEaw==
-----END CERTIFICATE-----
