Certificate:
    Data:
        Version: 3 (0x2)
        Serial Number: 1 (0x1)
    Signature Algorithm: sha1WithRSAEncryption
        Issuer: C=CN, ST=GuangDong, L=GuangZhou, O=zhuzaiyuan, OU=zhuzaiyuan, CN=WIFI/emailAddress=298077831@qq.com
        Validity
            Not Before: Jan 23 02:23:03 2021 GMT
            Not After : Jan 21 02:23:03 2031 GMT
        Subject: C=CN, ST=GuangDong, O=zhuzaiyuan, OU=zhuzaiyuan, CN=WIFI/emailAddress=298077831@qq.com
        Subject Public Key Info:
            Public Key Algorithm: rsaEncryption
                Public-Key: (2048 bit)
                Modulus:
                    00:c4:d7:3c:35:78:5d:7d:74:7e:a9:2c:5b:b4:be:
                    19:fc:41:64:99:e0:27:24:35:6c:b6:37:f1:ee:06:
                    77:f5:1e:37:65:d7:cb:65:6d:64:64:dd:e9:a1:f1:
                    2d:d7:e8:2f:b5:bd:1f:f4:98:6c:10:72:64:11:40:
                    7e:6b:01:89:4e:27:1e:e4:0c:81:c3:cc:be:bf:9b:
                    a5:e8:38:e5:7a:47:fb:1c:32:0d:9d:66:36:20:f2:
                    a0:62:2f:9d:55:eb:a2:6c:ff:80:e2:4d:11:ee:a3:
                    96:76:6f:18:69:4d:3e:de:f8:99:eb:3b:ca:f5:b7:
                    7c:b3:f3:40:bd:93:d3:33:29:6b:1c:76:0b:52:a2:
                    5f:1f:1a:ef:24:19:11:09:43:b7:b9:80:34:0e:46:
                    57:af:dc:d7:f1:a6:b4:6e:1a:dc:ae:e5:4d:5d:cc:
                    70:26:27:33:a5:da:a9:38:3f:13:e5:a5:c8:90:8a:
                    73:57:5d:d5:60:bf:3d:22:39:c3:b2:e7:fe:4b:be:
                    40:fe:6c:ad:22:17:af:68:56:d9:45:94:02:e1:97:
                    e3:3d:b3:ef:71:46:aa:55:29:46:d0:44:31:22:23:
                    54:85:72:5b:d5:82:c7:1e:a6:08:8e:a1:ff:5e:2e:
                    3a:b7:96:fe:6f:6b:1e:ad:cc:4b:fc:a7:e5:25:8d:
                    0a:89
                Exponent: 65537 (0x10001)
        X509v3 extensions:
            X509v3 Basic Constraints: 
                CA:FALSE
            Netscape Comment: 
                OpenSSL Generated Certificate
            X509v3 Subject Key Identifier: 
                0B:15:7C:41:71:5C:CA:8D:6C:25:83:16:EB:50:86:AA:3A:31:64:7A
            X509v3 Authority Key Identifier: 
                keyid:DA:A2:67:81:62:1E:22:61:C3:C4:0B:E1:94:D8:00:45:E1:CB:E5:5E

    Signature Algorithm: sha1WithRSAEncryption
         95:93:b8:b3:0c:78:bf:62:12:02:7d:0a:72:b9:0f:1b:aa:e3:
         a6:74:80:77:db:34:e4:67:91:f2:5a:0d:89:23:01:57:b0:7e:
         7e:18:d8:91:2a:c5:a5:b3:93:a6:8e:5b:de:10:0d:eb:2a:31:
         49:7f:32:3b:f3:f7:3e:a2:32:bc:69:73:15:9d:17:8f:67:88:
         fe:03:ca:7a:72:74:d6:2e:ad:34:e1:4c:b4:50:b5:30:7d:4f:
         81:e9:e5:75:8f:3b:84:bf:d1:6b:69:65:b3:df:c3:10:76:89:
         8d:6f:c5:e0:34:04:e0:b8:31:d0:72:4d:03:7a:78:8f:69:27:
         cd:7f:14:2f:08:09:b0:b3:d4:8c:ff:4e:c2:84:d3:37:b8:79:
         67:2f:d7:d9:fb:20:83:7d:be:af:b2:09:85:80:4b:1e:6d:c7:
         e8:42:42:e0:e8:e7:d3:0f:a7:1c:3d:2b:ca:eb:5d:60:f0:cb:
         61:f7:3e:18:c3:23:44:c1:a5:40:c1:aa:8e:34:cc:0f:d9:01:
         30:0c:b8:f3:60:a7:c2:62:1d:e4:c6:f0:95:69:87:93:56:ea:
         7d:6f:d0:a7:4e:6c:24:df:ed:46:58:93:8d:35:ba:22:4c:2d:
         3f:1f:b4:70:1a:73:54:2a:6b:ef:f8:7d:d4:94:23:7c:63:bc:
         ea:14:6a:0d
-----BEGIN CERTIFICATE-----
MIIEATCCAumgAwIBAgIBATANBgkqhkiG9w0BAQUFADCBjzELMAkGA1UEBhMCQ04x
EjAQBgNVBAgMCUd1YW5nRG9uZzESMBAGA1UEBwwJR3VhbmdaaG91MRMwEQYDVQQK
DAp6aHV6YWl5dWFuMRMwEQYDVQQLDAp6aHV6YWl5dWFuMQ0wCwYDVQQDDARXSUZJ
MR8wHQYJKoZIhvcNAQkBFhAyOTgwNzc4MzFAcXEuY29tMB4XDTIxMDEyMzAyMjMw
M1oXDTMxMDEyMTAyMjMwM1owezELMAkGA1UEBhMCQ04xEjAQBgNVBAgMCUd1YW5n
RG9uZzETMBEGA1UECgwKemh1emFpeXVhbjETMBEGA1UECwwKemh1emFpeXVhbjEN
MAsGA1UEAwwEV0lGSTEfMB0GCSqGSIb3DQEJARYQMjk4MDc3ODMxQHFxLmNvbTCC
ASIwDQYJKoZIhvcNAQEBBQADggEPADCCAQoCggEBAMTXPDV4XX10fqksW7S+GfxB
ZJngJyQ1bLY38e4Gd/UeN2XXy2VtZGTd6aHxLdfoL7W9H/SYbBByZBFAfmsBiU4n
HuQMgcPMvr+bpeg45XpH+xwyDZ1mNiDyoGIvnVXromz/gOJNEe6jlnZvGGlNPt74
mes7yvW3fLPzQL2T0zMpaxx2C1KiXx8a7yQZEQlDt7mANA5GV6/c1/GmtG4a3K7l
TV3McCYnM6XaqTg/E+WlyJCKc1dd1WC/PSI5w7Ln/ku+QP5srSIXr2hW2UWUAuGX
4z2z73FGqlUpRtBEMSIjVIVyW9WCxx6mCI6h/14uOreW/m9rHq3MS/yn5SWNCokC
AwEAAaN7MHkwCQYDVR0TBAIwADAsBglghkgBhvhCAQ0EHxYdT3BlblNTTCBHZW5l
cmF0ZWQgQ2VydGlmaWNhdGUwHQYDVR0OBBYEFAsVfEFxXMqNbCWDFutQhqo6MWR6
MB8GA1UdIwQYMBaAFNqiZ4FiHiJhw8QL4ZTYAEXhy+VeMA0GCSqGSIb3DQEBBQUA
A4IBAQCVk7izDHi/YhICfQpyuQ8bquOmdIB32zTkZ5HyWg2JIwFXsH5+GNiRKsWl
s5OmjlveEA3rKjFJfzI78/c+ojK8aXMVnRePZ4j+A8p6cnTWLq004Uy0ULUwfU+B
6eV1jzuEv9FraWWz38MQdomNb8XgNATguDHQck0DeniPaSfNfxQvCAmws9SM/07C
hNM3uHlnL9fZ+yCDfb6vsgmFgEsebcfoQkLg6OfTD6ccPSvK611g8Mth9z4YwyNE
waVAwaqONMwP2QEwDLjzYKfCYh3kxvCVaYeTVup9b9CnTmwk3+1GWJONNboiTC0/
H7RwGnNUKmvv+H3UlCN8Y7zqFGoN
-----END CERTIFICATE-----
