Certificate:
    Data:
        Version: 3 (0x2)
        Serial Number: 1 (0x1)
    Signature Algorithm: sha1WithRSAEncryption
        Issuer: C=CN, ST=GuangDong, L=GuangZhou, O=zhuzaiyuan, OU=zhuzaiyuan, CN=WIFI/emailAddress=298077831@qq.com
        Validity
            Not Before: Jan 22 18:07:01 2021 GMT
            Not After : Jan 22 18:07:01 2022 GMT
        Subject: C=CN, ST=GuangDong, O=zhuzaiyuan, OU=zhuzaiyuan, CN=WIFI/emailAddress=298077831@qq.com
        Subject Public Key Info:
            Public Key Algorithm: rsaEncryption
                Public-Key: (2048 bit)
                Modulus:
                    00:f1:9e:6b:d5:09:d1:d1:6a:79:6e:28:c8:f5:36:
                    09:36:32:f3:2c:07:a7:a7:7b:91:6b:bd:8b:2a:30:
                    56:5d:52:a4:fe:5e:2c:3a:d1:dc:ad:4f:0e:b2:4e:
                    4e:ca:c5:d3:36:6f:a8:9f:74:03:21:13:6e:f8:10:
                    fc:b1:ff:4a:49:d8:8d:75:0d:ce:49:cc:1e:21:d7:
                    08:47:c4:bc:29:69:3e:06:16:a1:8a:69:6d:d1:16:
                    8b:80:76:f8:7d:17:56:56:04:37:96:17:a6:f0:d5:
                    6b:61:65:cb:1e:d5:b6:be:a7:e7:d2:1c:31:9b:0b:
                    45:0c:b3:d8:96:f2:01:d4:5b:b7:32:5c:92:0c:ef:
                    89:f8:2b:57:ee:29:89:60:69:09:5f:43:75:a5:a3:
                    0f:9f:1a:34:0c:91:53:33:eb:da:c6:79:e2:d6:4d:
                    6c:87:9f:7c:cb:9f:c8:cb:5f:22:c9:3f:28:e4:1e:
                    6d:14:61:52:e7:ed:96:6c:13:3e:91:a9:ea:8c:a0:
                    b2:05:a6:10:22:be:7f:2f:bb:f1:41:92:a2:ca:fb:
                    43:31:2f:20:ee:c3:ee:5a:e6:47:2a:c1:bb:fa:20:
                    4d:4f:40:a3:dd:7d:18:0a:e0:73:62:b2:4d:64:be:
                    99:1a:8f:e4:5e:58:72:29:db:c8:a2:8d:73:c5:ce:
                    39:e9
                Exponent: 65537 (0x10001)
        X509v3 extensions:
            X509v3 Basic Constraints: 
                CA:FALSE
            Netscape Comment: 
                OpenSSL Generated Certificate
            X509v3 Subject Key Identifier: 
                71:1B:DD:B2:61:0D:D4:07:D1:72:15:19:60:BE:E7:C9:1F:B9:34:6A
            X509v3 Authority Key Identifier: 
                keyid:78:52:E4:B3:F3:B7:D7:A9:3D:CC:30:7F:12:C0:D0:2E:EB:74:B3:04

    Signature Algorithm: sha1WithRSAEncryption
         39:3e:86:59:72:c0:95:ec:76:3b:fb:2d:a0:aa:6f:0c:88:1a:
         9a:8e:0c:07:94:b5:f0:a9:6c:5c:7a:32:21:e6:a2:c3:b7:25:
         c0:f8:a2:e4:cf:a0:40:9c:b5:5e:11:bd:4e:82:f0:56:96:ca:
         dd:c3:fd:35:4f:f9:82:8d:ac:9b:6c:9b:70:71:2a:e3:5c:6f:
         70:f4:7a:d3:c1:06:f1:39:d9:e1:4d:2c:7e:51:0e:b9:96:fb:
         d3:fb:21:1c:2e:01:d4:fa:cd:52:90:24:9b:6a:61:dd:23:bc:
         82:bd:87:06:9f:69:7e:ef:8e:57:ac:78:d8:a6:e9:87:6b:da:
         19:be:00:49:78:e3:ac:23:91:ec:0a:bf:60:a5:10:8f:3c:dd:
         c9:41:e6:95:81:a2:74:41:84:37:01:02:ce:49:f8:e2:f2:95:
         13:9a:10:dd:b4:44:86:c8:86:69:c9:cf:89:ec:2e:d9:c9:ec:
         7b:0d:69:ab:0e:27:6c:01:7a:90:9b:09:20:f1:a6:a3:88:e6:
         96:cd:a4:0c:ea:96:6e:f1:65:0d:be:e7:a7:d9:ba:5a:a7:ff:
         bb:13:5c:48:d9:3b:e1:61:13:ba:c4:c4:be:dc:54:c3:9e:8e:
         7f:2a:6c:43:f1:06:09:89:2f:25:f3:10:d5:5c:7b:de:c4:e6:
         8f:41:84:be
-----BEGIN CERTIFICATE-----
MIIEATCCAumgAwIBAgIBATANBgkqhkiG9w0BAQUFADCBjzELMAkGA1UEBhMCQ04x
EjAQBgNVBAgMCUd1YW5nRG9uZzESMBAGA1UEBwwJR3VhbmdaaG91MRMwEQYDVQQK
DAp6aHV6YWl5dWFuMRMwEQYDVQQLDAp6aHV6YWl5dWFuMQ0wCwYDVQQDDARXSUZJ
MR8wHQYJKoZIhvcNAQkBFhAyOTgwNzc4MzFAcXEuY29tMB4XDTIxMDEyMjE4MDcw
MVoXDTIyMDEyMjE4MDcwMVowezELMAkGA1UEBhMCQ04xEjAQBgNVBAgMCUd1YW5n
RG9uZzETMBEGA1UECgwKemh1emFpeXVhbjETMBEGA1UECwwKemh1emFpeXVhbjEN
MAsGA1UEAwwEV0lGSTEfMB0GCSqGSIb3DQEJARYQMjk4MDc3ODMxQHFxLmNvbTCC
ASIwDQYJKoZIhvcNAQEBBQADggEPADCCAQoCggEBAPGea9UJ0dFqeW4oyPU2CTYy
8ywHp6d7kWu9iyowVl1SpP5eLDrR3K1PDrJOTsrF0zZvqJ90AyETbvgQ/LH/SknY
jXUNzknMHiHXCEfEvClpPgYWoYppbdEWi4B2+H0XVlYEN5YXpvDVa2Flyx7Vtr6n
59IcMZsLRQyz2JbyAdRbtzJckgzvifgrV+4piWBpCV9DdaWjD58aNAyRUzPr2sZ5
4tZNbIeffMufyMtfIsk/KOQebRRhUuftlmwTPpGp6oygsgWmECK+fy+78UGSosr7
QzEvIO7D7lrmRyrBu/ogTU9Ao919GArgc2KyTWS+mRqP5F5YcinbyKKNc8XOOekC
AwEAAaN7MHkwCQYDVR0TBAIwADAsBglghkgBhvhCAQ0EHxYdT3BlblNTTCBHZW5l
cmF0ZWQgQ2VydGlmaWNhdGUwHQYDVR0OBBYEFHEb3bJhDdQH0XIVGWC+58kfuTRq
MB8GA1UdIwQYMBaAFHhS5LPzt9epPcwwfxLA0C7rdLMEMA0GCSqGSIb3DQEBBQUA
A4IBAQA5PoZZcsCV7HY7+y2gqm8MiBqajgwHlLXwqWxcejIh5qLDtyXA+KLkz6BA
nLVeEb1OgvBWlsrdw/01T/mCjaybbJtwcSrjXG9w9HrTwQbxOdnhTSx+UQ65lvvT
+yEcLgHU+s1SkCSbamHdI7yCvYcGn2l+745XrHjYpumHa9oZvgBJeOOsI5HsCr9g
pRCPPN3JQeaVgaJ0QYQ3AQLOSfji8pUTmhDdtESGyIZpyc+J7C7Zyex7DWmrDids
AXqQmwkg8aajiOaWzaQM6pZu8WUNvuen2bpap/+7E1xI2TvhYRO6xMS+3FTDno5/
KmxD8QYJiS8l8xDVXHvexOaPQYS+
-----END CERTIFICATE-----
